target datalayout = "e-m:e-p270:32:32-p271:32:32-p272:64:64-i64:64-i128:128-f80:128-n8:16:32:64-S128"
target triple = "x86_64-pc-linux-gnu"

%"struct.vcpkg::StringLiteral" = type { %"struct.vcpkg::ZStringView" }
%"struct.vcpkg::ZStringView" = type { %"struct.vcpkg::StringView" }
%"struct.vcpkg::StringView" = type { ptr, i64 }
%"struct.vcpkg::StringMetricEntry" = type { i32, %"struct.vcpkg::StringLiteral", %"struct.vcpkg::StringLiteral" }
%"struct.Catch::SourceLineInfo" = type { ptr, i64 }
%"class.Catch::StringRef" = type { ptr, i64 }
%"class.Catch::AssertionHandler" = type { %"struct.Catch::AssertionInfo", %"struct.Catch::AssertionReaction", i8, ptr }
%"struct.Catch::AssertionInfo" = type <{ %"class.Catch::StringRef", %"struct.Catch::SourceLineInfo", %"class.Catch::StringRef", i32, [4 x i8] }>
%"struct.Catch::AssertionReaction" = type { i8, i8 }
%"class.Catch::ExprLhs.3" = type { i8 }
%"struct.Catch::Decomposer" = type { i8 }
%"struct.Catch::ITransientExpression.base" = type <{ ptr, i8, i8 }>
%"class.Catch::UnaryExpr" = type { %"struct.Catch::ITransientExpression.base", i8, [5 x i8] }
%"struct.Catch::ITransientExpression" = type <{ ptr, i8, i8, [6 x i8] }>

@.str = private unnamed_addr constant [121 x i8] c"generated/home/dtcxzyw/WorkSpace/Projects/compilers/llvm-opt-benchmark/bench/vcpkg/vcpkg-tool/src/vcpkg-test/metrics.cpp\00", align 1
@_ZN5vcpkg18all_string_metricsE = external global [19 x %"struct.vcpkg::StringMetricEntry"], align 16
@.str.24 = private unnamed_addr constant [8 x i8] c"REQUIRE\00", align 1
@_ZTVN5Catch20ITransientExpressionE = available_externally unnamed_addr constant { [5 x ptr] } { [5 x ptr] [ptr null, ptr @_ZTIN5Catch20ITransientExpressionE, ptr @__cxa_pure_virtual, ptr @_ZN5Catch20ITransientExpressionD1Ev, ptr @_ZN5Catch20ITransientExpressionD0Ev] }, align 8
@.str.29 = private unnamed_addr constant [41 x i8] c"!string_metric.preregister_value.empty()\00", align 1

; Function Attrs: mustprogress nounwind uwtable
define linkonce_odr dso_local void @_ZN5Catch20ITransientExpressionC2Ebb(ptr noundef nonnull align 8 dereferenceable(10) %0, i1 noundef zeroext %1, i1 noundef zeroext %2) unnamed_addr #4 comdat align 2 {
  %4 = alloca ptr, align 8
  %5 = alloca i8, align 1
  %6 = alloca i8, align 1
  store ptr %0, ptr %4, align 8, !tbaa !124
  %7 = zext i1 %1 to i8
  store i8 %7, ptr %5, align 1, !tbaa !90
  %8 = zext i1 %2 to i8
  store i8 %8, ptr %6, align 1, !tbaa !90
  %9 = load ptr, ptr %4, align 8
  store ptr getelementptr inbounds inrange(-16, 24) ({ [5 x ptr] }, ptr @_ZTVN5Catch20ITransientExpressionE, i32 0, i32 0, i32 2), ptr %9, align 8, !tbaa !86
  %10 = getelementptr inbounds nuw %"struct.Catch::ITransientExpression", ptr %9, i32 0, i32 1
  %11 = load i8, ptr %5, align 1, !tbaa !90, !range !83, !noundef !84
  %12 = trunc i8 %11 to i1
  %13 = zext i1 %12 to i8
  store i8 %13, ptr %10, align 8, !tbaa !126
  %14 = getelementptr inbounds nuw %"struct.Catch::ITransientExpression", ptr %9, i32 0, i32 2
  %15 = load i8, ptr %6, align 1, !tbaa !90, !range !83, !noundef !84
  %16 = trunc i8 %15 to i1
  %17 = zext i1 %16 to i8
  store i8 %17, ptr %14, align 1, !tbaa !128
  ret void
}

; Function Attrs: mustprogress nounwind uwtable
define linkonce_odr dso_local void @_ZN5Catch9UnaryExprIbEC2Eb(ptr noundef nonnull align 8 dereferenceable(11) %0, i1 noundef zeroext %1) unnamed_addr #4 comdat align 2 {
  %3 = alloca ptr, align 8
  %4 = alloca i8, align 1
  store ptr %0, ptr %3, align 8, !tbaa !136
  %5 = zext i1 %1 to i8
  store i8 %5, ptr %4, align 1, !tbaa !90
  %6 = load ptr, ptr %3, align 8
  %7 = load i8, ptr %4, align 1, !tbaa !90, !range !83, !noundef !84
  %8 = trunc i8 %7 to i1
  call void @_ZN5Catch20ITransientExpressionC2Ebb(ptr noundef nonnull align 8 dereferenceable(10) %6, i1 noundef zeroext false, i1 noundef zeroext %8)
  store ptr getelementptr inbounds inrange(-16, 24) ({ [5 x ptr] }, ptr @_ZTVN5Catch9UnaryExprIbEE, i32 0, i32 0, i32 2), ptr %6, align 8, !tbaa !86
  %9 = getelementptr inbounds nuw %"class.Catch::UnaryExpr", ptr %6, i32 0, i32 1
  %10 = load i8, ptr %4, align 1, !tbaa !90, !range !83, !noundef !84
  %11 = trunc i8 %10 to i1
  %12 = zext i1 %11 to i8
  store i8 %12, ptr %9, align 2, !tbaa !138
  ret void
}

; Function Attrs: mustprogress uwtable
define linkonce_odr dso_local void @_ZNK5Catch7ExprLhsIbE13makeUnaryExprEv(ptr dead_on_unwind noalias writable sret(%"class.Catch::UnaryExpr") align 8 %0, ptr noundef nonnull align 1 dereferenceable(1) %1) #2 comdat align 2 {
  %3 = alloca ptr, align 8
  %4 = alloca ptr, align 8
  store ptr %0, ptr %3, align 8
  store ptr %1, ptr %4, align 8, !tbaa !88
  %5 = load ptr, ptr %4, align 8
  %6 = getelementptr inbounds nuw %"class.Catch::ExprLhs.3", ptr %5, i32 0, i32 0
  %7 = load i8, ptr %6, align 1, !tbaa !134, !range !83, !noundef !84
  %8 = trunc i8 %7 to i1
  call void @_ZN5Catch9UnaryExprIbEC2Eb(ptr noundef nonnull align 8 dereferenceable(11) %0, i1 noundef zeroext %8)
  ret void
}

; Function Attrs: mustprogress nounwind uwtable
define linkonce_odr dso_local void @_ZN5Catch7ExprLhsIbEC2Eb(ptr noundef nonnull align 1 dereferenceable(1) %0, i1 noundef zeroext %1) unnamed_addr #4 comdat align 2 {
  %3 = alloca ptr, align 8
  %4 = alloca i8, align 1
  store ptr %0, ptr %3, align 8, !tbaa !88
  %5 = zext i1 %1 to i8
  store i8 %5, ptr %4, align 1, !tbaa !90
  %6 = load ptr, ptr %3, align 8
  %7 = getelementptr inbounds nuw %"class.Catch::ExprLhs.3", ptr %6, i32 0, i32 0
  %8 = load i8, ptr %4, align 1, !tbaa !90, !range !83, !noundef !84
  %9 = trunc i8 %8 to i1
  %10 = zext i1 %9 to i8
  store i8 %10, ptr %7, align 1, !tbaa !134
  ret void
}

; Function Attrs: mustprogress nounwind uwtable
define linkonce_odr dso_local void @_ZN5Catch9StringRefC2EPKcm(ptr noundef nonnull align 8 dereferenceable(16) %0, ptr noundef %1, i64 noundef %2) unnamed_addr #4 comdat align 2 {
  %4 = alloca ptr, align 8
  %5 = alloca ptr, align 8
  %6 = alloca i64, align 8
  store ptr %0, ptr %4, align 8, !tbaa !18
  store ptr %1, ptr %5, align 8, !tbaa !11
  store i64 %2, ptr %6, align 8, !tbaa !13
  %7 = load ptr, ptr %4, align 8
  %8 = getelementptr inbounds nuw %"class.Catch::StringRef", ptr %7, i32 0, i32 0
  %9 = load ptr, ptr %5, align 8, !tbaa !11
  store ptr %9, ptr %8, align 8, !tbaa !20
  %10 = getelementptr inbounds nuw %"class.Catch::StringRef", ptr %7, i32 0, i32 1
  %11 = load i64, ptr %6, align 8, !tbaa !13
  store i64 %11, ptr %10, align 8, !tbaa !22
  ret void
}

; Function Attrs: mustprogress uwtable
define linkonce_odr dso_local void @_ZN5Catch16AssertionHandler10handleExprIbEEvRKNS_7ExprLhsIT_EE(ptr noundef nonnull align 8 dereferenceable(72) %0, ptr noundef nonnull align 1 dereferenceable(1) %1) #2 comdat align 2 personality ptr @__gxx_personality_v0 {
  %3 = alloca ptr, align 8
  %4 = alloca ptr, align 8
  %5 = alloca %"class.Catch::UnaryExpr", align 8
  %6 = alloca ptr, align 8
  %7 = alloca i32, align 4
  store ptr %0, ptr %3, align 8, !tbaa !74
  store ptr %1, ptr %4, align 8, !tbaa !88
  %8 = load ptr, ptr %3, align 8
  call void @llvm.lifetime.start.p0(i64 16, ptr %5) #6
  %9 = load ptr, ptr %4, align 8, !tbaa !88
  call void @_ZNK5Catch7ExprLhsIbE13makeUnaryExprEv(ptr dead_on_unwind writable sret(%"class.Catch::UnaryExpr") align 8 %5, ptr noundef nonnull align 1 dereferenceable(1) %9)
  invoke void @_ZN5Catch16AssertionHandler10handleExprERKNS_20ITransientExpressionE(ptr noundef nonnull align 8 dereferenceable(72) %8, ptr noundef nonnull align 8 dereferenceable(10) %5)
          to label %10 unwind label %11

10:                                               ; preds = %2
  call void @_ZN5Catch20ITransientExpressionD2Ev(ptr noundef nonnull align 8 dereferenceable(11) %5) #6
  call void @llvm.lifetime.end.p0(i64 16, ptr %5) #6
  ret void

11:                                               ; preds = %2
  %12 = landingpad { ptr, i32 }
          cleanup
  %13 = extractvalue { ptr, i32 } %12, 0
  store ptr %13, ptr %6, align 8
  %14 = extractvalue { ptr, i32 } %12, 1
  store i32 %14, ptr %7, align 4
  call void @_ZN5Catch20ITransientExpressionD2Ev(ptr noundef nonnull align 8 dereferenceable(11) %5) #6
  call void @llvm.lifetime.end.p0(i64 16, ptr %5) #6
  br label %15

15:                                               ; preds = %11
  %16 = load ptr, ptr %6, align 8
  %17 = load i32, ptr %7, align 4
  %18 = insertvalue { ptr, i32 } poison, ptr %16, 0
  %19 = insertvalue { ptr, i32 } %18, i32 %17, 1
  resume { ptr, i32 } %19
}

; Function Attrs: mustprogress uwtable
define linkonce_odr dso_local i8 @_ZN5Catch10DecomposerleEb(ptr noundef nonnull align 1 dereferenceable(1) %0, i1 noundef zeroext %1) #2 comdat align 2 {
  %3 = alloca %"class.Catch::ExprLhs.3", align 1
  %4 = alloca ptr, align 8
  %5 = alloca i8, align 1
  store ptr %0, ptr %4, align 8, !tbaa !66
  %6 = zext i1 %1 to i8
  store i8 %6, ptr %5, align 1, !tbaa !90
  %7 = load i8, ptr %5, align 1, !tbaa !90, !range !83, !noundef !84
  %8 = trunc i8 %7 to i1
  call void @_ZN5Catch7ExprLhsIbEC2Eb(ptr noundef nonnull align 1 dereferenceable(1) %3, i1 noundef zeroext %8)
  %9 = getelementptr inbounds nuw %"class.Catch::ExprLhs.3", ptr %3, i32 0, i32 0
  %10 = load i8, ptr %9, align 1
  ret i8 %10
}

; Function Attrs: mustprogress nounwind uwtable
define linkonce_odr dso_local noundef zeroext i1 @_ZNK5vcpkg10StringView5emptyEv(ptr noundef nonnull align 8 dereferenceable(16) %0) #4 comdat align 2 {
  %2 = alloca ptr, align 8
  store ptr %0, ptr %2, align 8, !tbaa !91
  %3 = load ptr, ptr %2, align 8
  %4 = getelementptr inbounds nuw %"struct.vcpkg::StringView", ptr %3, i32 0, i32 1
  %5 = load i64, ptr %4, align 8, !tbaa !93
  %6 = icmp eq i64 %5, 0
  ret i1 %6
}

; Function Attrs: mustprogress nounwind uwtable
define linkonce_odr dso_local void @_ZN5Catch14SourceLineInfoC2EPKcm(ptr noundef nonnull align 8 dereferenceable(16) %0, ptr noundef %1, i64 noundef %2) unnamed_addr #4 comdat align 2 {
  %4 = alloca ptr, align 8
  %5 = alloca ptr, align 8
  %6 = alloca i64, align 8
  store ptr %0, ptr %4, align 8, !tbaa !9
  store ptr %1, ptr %5, align 8, !tbaa !11
  store i64 %2, ptr %6, align 8, !tbaa !13
  %7 = load ptr, ptr %4, align 8
  %8 = getelementptr inbounds nuw %"struct.Catch::SourceLineInfo", ptr %7, i32 0, i32 0
  %9 = load ptr, ptr %5, align 8, !tbaa !11
  store ptr %9, ptr %8, align 8, !tbaa !15
  %10 = getelementptr inbounds nuw %"struct.Catch::SourceLineInfo", ptr %7, i32 0, i32 1
  %11 = load i64, ptr %6, align 8, !tbaa !13
  store i64 %11, ptr %10, align 8, !tbaa !17
  ret void
}

; Function Attrs: mustprogress nounwind uwtable
define linkonce_odr dso_local { ptr, i64 } @_Zli9_catch_srPKcm(ptr noundef %0, i64 noundef %1) #4 comdat {
  %3 = alloca %"class.Catch::StringRef", align 8
  %4 = alloca ptr, align 8
  %5 = alloca i64, align 8
  store ptr %0, ptr %4, align 8, !tbaa !11
  store i64 %1, ptr %5, align 8, !tbaa !13
  %6 = load ptr, ptr %4, align 8, !tbaa !11
  %7 = load i64, ptr %5, align 8, !tbaa !13
  call void @_ZN5Catch9StringRefC2EPKcm(ptr noundef nonnull align 8 dereferenceable(16) %3, ptr noundef %6, i64 noundef %7) #6
  %8 = load { ptr, i64 }, ptr %3, align 8
  ret { ptr, i64 } %8
}

; Function Attrs: mustprogress uwtable
define internal void @_ZL19C_A_T_C_H_T_E_S_T_5v() #2 personality ptr @__gxx_personality_v0 {
  %1 = alloca ptr, align 8
  %2 = alloca ptr, align 8
  %3 = alloca ptr, align 8
  %4 = alloca ptr, align 8
  %5 = alloca %"class.Catch::AssertionHandler", align 8
  %6 = alloca %"class.Catch::StringRef", align 8
  %7 = alloca %"struct.Catch::SourceLineInfo", align 8
  %8 = alloca %"class.Catch::StringRef", align 8
  %9 = alloca %"class.Catch::ExprLhs.3", align 1
  %10 = alloca %"struct.Catch::Decomposer", align 1
  %11 = alloca ptr, align 8
  %12 = alloca i32, align 4
  call void @llvm.lifetime.start.p0(i64 8, ptr %1) #6
  store ptr @_ZN5vcpkg18all_string_metricsE, ptr %1, align 8, !tbaa !23
  call void @llvm.lifetime.start.p0(i64 8, ptr %2) #6
  store ptr @_ZN5vcpkg18all_string_metricsE, ptr %2, align 8, !tbaa !23
  call void @llvm.lifetime.start.p0(i64 8, ptr %3) #6
  store ptr getelementptr inbounds (%"struct.vcpkg::StringMetricEntry", ptr @_ZN5vcpkg18all_string_metricsE, i64 19), ptr %3, align 8, !tbaa !23
  br label %13

13:                                               ; preds = %51, %0
  %14 = load ptr, ptr %2, align 8, !tbaa !23
  %15 = load ptr, ptr %3, align 8, !tbaa !23
  %16 = icmp ne ptr %14, %15
  br i1 %16, label %18, label %17

17:                                               ; preds = %13
  call void @llvm.lifetime.end.p0(i64 8, ptr %3) #6
  call void @llvm.lifetime.end.p0(i64 8, ptr %2) #6
  call void @llvm.lifetime.end.p0(i64 8, ptr %1) #6
  br label %64

18:                                               ; preds = %13
  call void @llvm.lifetime.start.p0(i64 8, ptr %4) #6
  %19 = load ptr, ptr %2, align 8, !tbaa !23
  store ptr %19, ptr %4, align 8, !tbaa !23
  br label %20

20:                                               ; preds = %18
  call void @llvm.lifetime.start.p0(i64 72, ptr %5) #6
  call void @llvm.lifetime.start.p0(i64 16, ptr %6) #6
  %21 = call { ptr, i64 } @_Zli9_catch_srPKcm(ptr noundef @.str.24, i64 noundef 7) #6
  %22 = getelementptr inbounds nuw { ptr, i64 }, ptr %6, i32 0, i32 0
  %23 = extractvalue { ptr, i64 } %21, 0
  store ptr %23, ptr %22, align 8
  %24 = getelementptr inbounds nuw { ptr, i64 }, ptr %6, i32 0, i32 1
  %25 = extractvalue { ptr, i64 } %21, 1
  store i64 %25, ptr %24, align 8
  call void @llvm.lifetime.start.p0(i64 16, ptr %7) #6
  call void @_ZN5Catch14SourceLineInfoC2EPKcm(ptr noundef nonnull align 8 dereferenceable(16) %7, ptr noundef @.str, i64 noundef 58) #6
  call void @_ZN5Catch9StringRefC1EPKc(ptr noundef nonnull align 8 dereferenceable(16) %8, ptr noundef @.str.29) #6
  %26 = getelementptr inbounds nuw { ptr, i64 }, ptr %8, i32 0, i32 0
  %27 = load ptr, ptr %26, align 8
  %28 = getelementptr inbounds nuw { ptr, i64 }, ptr %8, i32 0, i32 1
  %29 = load i64, ptr %28, align 8
  call void @_ZN5Catch16AssertionHandlerC1ERKNS_9StringRefERKNS_14SourceLineInfoES1_NS_17ResultDisposition5FlagsE(ptr noundef nonnull align 8 dereferenceable(72) %5, ptr noundef nonnull align 8 dereferenceable(16) %6, ptr noundef nonnull align 8 dereferenceable(16) %7, ptr %27, i64 %29, i32 noundef 1)
  call void @llvm.lifetime.end.p0(i64 16, ptr %7) #6
  call void @llvm.lifetime.end.p0(i64 16, ptr %6) #6
  call void @llvm.lifetime.start.p0(i64 1, ptr %9) #6
  call void @llvm.lifetime.start.p0(i64 1, ptr %10) #6
  %30 = load ptr, ptr %4, align 8, !tbaa !23
  %31 = getelementptr inbounds nuw %"struct.vcpkg::StringMetricEntry", ptr %30, i32 0, i32 2
  %32 = call noundef zeroext i1 @_ZNK5vcpkg10StringView5emptyEv(ptr noundef nonnull align 8 dereferenceable(16) %31) #6
  %33 = xor i1 %32, true
  %34 = invoke i8 @_ZN5Catch10DecomposerleEb(ptr noundef nonnull align 1 dereferenceable(1) %10, i1 noundef zeroext %33)
          to label %35 unwind label %38

35:                                               ; preds = %20
  %36 = getelementptr inbounds nuw %"class.Catch::ExprLhs.3", ptr %9, i32 0, i32 0
  store i8 %34, ptr %36, align 1
  invoke void @_ZN5Catch16AssertionHandler10handleExprIbEEvRKNS_7ExprLhsIT_EE(ptr noundef nonnull align 8 dereferenceable(72) %5, ptr noundef nonnull align 1 dereferenceable(1) %9)
          to label %37 unwind label %38

37:                                               ; preds = %35
  call void @llvm.lifetime.end.p0(i64 1, ptr %10) #6
  call void @llvm.lifetime.end.p0(i64 1, ptr %9) #6
  br label %47

38:                                               ; preds = %35, %20
  %39 = landingpad { ptr, i32 }
          catch ptr null
  %40 = extractvalue { ptr, i32 } %39, 0
  store ptr %40, ptr %11, align 8
  %41 = extractvalue { ptr, i32 } %39, 1
  store i32 %41, ptr %12, align 4
  call void @llvm.lifetime.end.p0(i64 1, ptr %10) #6
  call void @llvm.lifetime.end.p0(i64 1, ptr %9) #6
  br label %42

42:                                               ; preds = %38
  %43 = load ptr, ptr %11, align 8
  %44 = call ptr @__cxa_begin_catch(ptr %43) #6
  invoke void @_ZN5Catch16AssertionHandler33handleUnexpectedInflightExceptionEv(ptr noundef nonnull align 8 dereferenceable(72) %5)
          to label %45 unwind label %54

45:                                               ; preds = %42
  invoke void @__cxa_end_catch()
          to label %46 unwind label %58

46:                                               ; preds = %45
  br label %47

47:                                               ; preds = %46, %37
  invoke void @_ZN5Catch16AssertionHandler8completeEv(ptr noundef nonnull align 8 dereferenceable(72) %5)
          to label %48 unwind label %58

48:                                               ; preds = %47
  call void @_ZN5Catch16AssertionHandlerD2Ev(ptr noundef nonnull align 8 dereferenceable(72) %5) #6
  call void @llvm.lifetime.end.p0(i64 72, ptr %5) #6
  br label %49

49:                                               ; preds = %48
  br label %50

50:                                               ; preds = %49
  call void @llvm.lifetime.end.p0(i64 8, ptr %4) #6
  br label %51

51:                                               ; preds = %50
  %52 = load ptr, ptr %2, align 8, !tbaa !23
  %53 = getelementptr inbounds nuw %"struct.vcpkg::StringMetricEntry", ptr %52, i32 1
  store ptr %53, ptr %2, align 8, !tbaa !23
  br label %13

54:                                               ; preds = %42
  %55 = landingpad { ptr, i32 }
          cleanup
  %56 = extractvalue { ptr, i32 } %55, 0
  store ptr %56, ptr %11, align 8
  %57 = extractvalue { ptr, i32 } %55, 1
  store i32 %57, ptr %12, align 4
  invoke void @__cxa_end_catch()
          to label %62 unwind label %70

58:                                               ; preds = %47, %45
  %59 = landingpad { ptr, i32 }
          cleanup
  %60 = extractvalue { ptr, i32 } %59, 0
  store ptr %60, ptr %11, align 8
  %61 = extractvalue { ptr, i32 } %59, 1
  store i32 %61, ptr %12, align 4
  br label %63

62:                                               ; preds = %54
  br label %63

63:                                               ; preds = %62, %58
  call void @_ZN5Catch16AssertionHandlerD2Ev(ptr noundef nonnull align 8 dereferenceable(72) %5) #6
  call void @llvm.lifetime.end.p0(i64 72, ptr %5) #6
  call void @llvm.lifetime.end.p0(i64 8, ptr %4) #6
  call void @llvm.lifetime.end.p0(i64 8, ptr %3) #6
  call void @llvm.lifetime.end.p0(i64 8, ptr %2) #6
  call void @llvm.lifetime.end.p0(i64 8, ptr %1) #6
  br label %65

64:                                               ; preds = %17
  ret void

65:                                               ; preds = %63
  %66 = load ptr, ptr %11, align 8
  %67 = load i32, ptr %12, align 4
  %68 = insertvalue { ptr, i32 } poison, ptr %66, 0
  %69 = insertvalue { ptr, i32 } %68, i32 %67, 1
  resume { ptr, i32 } %69

70:                                               ; preds = %54
  %71 = landingpad { ptr, i32 }
          catch ptr null
  %72 = extractvalue { ptr, i32 } %71, 0
  call void @__clang_call_terminate(ptr %72) #18
  unreachable
}