; Function Attrs: mustprogress uwtable
define internal void @_ZL19C_A_T_C_H_T_E_S_T_5v() #1 personality ptr @__gxx_personality_v0 {
  %1 = alloca %"class.Catch::UnaryExpr", align 8
  %2 = alloca %"class.Catch::AssertionHandler", align 8
  %3 = alloca %"class.Catch::StringRef", align 8
  %4 = alloca %"struct.Catch::SourceLineInfo", align 8
  %5 = alloca %"class.Catch::StringRef", align 8
  %6 = getelementptr inbounds nuw i8, ptr %3, i64 8
  %7 = getelementptr inbounds nuw i8, ptr %4, i64 8
  %8 = getelementptr inbounds nuw i8, ptr %5, i64 8
  %9 = getelementptr inbounds nuw i8, ptr %1, i64 8
  %10 = getelementptr inbounds nuw i8, ptr %1, i64 9
  %11 = getelementptr inbounds nuw i8, ptr %1, i64 10
  %12 = getelementptr inbounds nuw i8, ptr %2, i64 58
  %13 = getelementptr inbounds nuw i8, ptr %2, i64 64
  br label %15

14:                                               ; preds = %_ZN5Catch16AssertionHandlerD2Ev.exit
  ret void

15:                                               ; preds = %0, %_ZN5Catch16AssertionHandlerD2Ev.exit
  %.08.idx11 = phi i64 [ 0, %0 ], [ %.08.add, %_ZN5Catch16AssertionHandlerD2Ev.exit ]
  call void @llvm.lifetime.start.p0(i64 72, ptr nonnull %2) #19
  call void @llvm.lifetime.start.p0(i64 16, ptr nonnull %3) #19
  store ptr @.str.24, ptr %3, align 8
  store i64 7, ptr %6, align 8
  call void @llvm.lifetime.start.p0(i64 16, ptr nonnull %4) #19
  store ptr @.str, ptr %4, align 8, !tbaa !4
  store i64 58, ptr %7, align 8, !tbaa !11
  call void @_ZN5Catch9StringRefC1EPKc(ptr noundef nonnull align 8 dereferenceable(16) %5, ptr noundef nonnull @.str.29) #19
  %16 = load ptr, ptr %5, align 8
  %17 = load i64, ptr %8, align 8
  call void @_ZN5Catch16AssertionHandlerC1ERKNS_9StringRefERKNS_14SourceLineInfoES1_NS_17ResultDisposition5FlagsE(ptr noundef nonnull align 8 dereferenceable(72) %2, ptr noundef nonnull align 8 dereferenceable(16) %3, ptr noundef nonnull align 8 dereferenceable(16) %4, ptr %16, i64 %17, i32 noundef 1)
  call void @llvm.lifetime.end.p0(i64 16, ptr nonnull %4) #19
  call void @llvm.lifetime.end.p0(i64 16, ptr nonnull %3) #19
  %gep = getelementptr inbounds nuw i8, ptr getelementptr inbounds nuw (i8, ptr @_ZN5vcpkg18all_string_metricsE, i64 32), i64 %.08.idx11
  %18 = load i64, ptr %gep, align 8, !tbaa !18
  %19 = icmp ne i64 %18, 0
  %20 = zext i1 %19 to i8
  call void @llvm.lifetime.start.p0(i64 16, ptr nonnull %1) #19
  store i8 0, ptr %9, align 8, !tbaa !20, !alias.scope !23
  store i8 %20, ptr %10, align 1, !tbaa !26, !alias.scope !23
  store ptr getelementptr inbounds nuw inrange(-16, 24) (i8, ptr @_ZTVN5Catch9UnaryExprIbEE, i64 16), ptr %1, align 8, !tbaa !27, !alias.scope !23
  store i8 %20, ptr %11, align 2, !tbaa !29, !alias.scope !23
  invoke void @_ZN5Catch16AssertionHandler10handleExprERKNS_20ITransientExpressionE(ptr noundef nonnull align 8 dereferenceable(72) %2, ptr noundef nonnull align 8 dereferenceable(10) %1)
          to label %24 unwind label %.body

.body:                                            ; preds = %15
  %21 = landingpad { ptr, i32 }
          catch ptr null
  call void @_ZN5Catch20ITransientExpressionD2Ev(ptr noundef nonnull align 8 dereferenceable(11) %1) #19
  call void @llvm.lifetime.end.p0(i64 16, ptr nonnull %1) #19
  %22 = extractvalue { ptr, i32 } %21, 0
  %23 = call ptr @__cxa_begin_catch(ptr %22) #19
  invoke void @_ZN5Catch16AssertionHandler33handleUnexpectedInflightExceptionEv(ptr noundef nonnull align 8 dereferenceable(72) %2)
          to label %25 unwind label %38

24:                                               ; preds = %15
  call void @_ZN5Catch20ITransientExpressionD2Ev(ptr noundef nonnull align 8 dereferenceable(11) %1) #19
  call void @llvm.lifetime.end.p0(i64 16, ptr nonnull %1) #19
  br label %26

25:                                               ; preds = %.body
  invoke void @__cxa_end_catch()
          to label %26 unwind label %40

26:                                               ; preds = %25, %24
  invoke void @_ZN5Catch16AssertionHandler8completeEv(ptr noundef nonnull align 8 dereferenceable(72) %2)
          to label %27 unwind label %40

27:                                               ; preds = %26
  %28 = load i8, ptr %12, align 2, !tbaa !31, !range !38, !noundef !39
  %29 = trunc nuw i8 %28 to i1
  br i1 %29, label %_ZN5Catch16AssertionHandlerD2Ev.exit, label %30

30:                                               ; preds = %27
  %31 = load ptr, ptr %13, align 8, !tbaa !40
  %32 = load ptr, ptr %31, align 8, !tbaa !27
  %33 = getelementptr inbounds nuw i8, ptr %32, i64 112
  %34 = load ptr, ptr %33, align 8
  invoke void %34(ptr noundef nonnull align 8 dereferenceable(8) %31, ptr noundef nonnull align 8 dereferenceable(72) %2)
          to label %_ZN5Catch16AssertionHandlerD2Ev.exit unwind label %35

35:                                               ; preds = %30
  %36 = landingpad { ptr, i32 }
          catch ptr null
  %37 = extractvalue { ptr, i32 } %36, 0
  call void @__clang_call_terminate(ptr %37) #21
  unreachable

_ZN5Catch16AssertionHandlerD2Ev.exit:             ; preds = %27, %30
  call void @llvm.lifetime.end.p0(i64 72, ptr nonnull %2) #19
  %.08.add = add nuw nsw i64 %.08.idx11, 40
  %.not = icmp eq i64 %.08.add, 760
  br i1 %.not, label %14, label %15

38:                                               ; preds = %.body
  %39 = landingpad { ptr, i32 }
          cleanup
  invoke void @__cxa_end_catch()
          to label %42 unwind label %43

40:                                               ; preds = %26, %25
  %41 = landingpad { ptr, i32 }
          cleanup
  br label %42

42:                                               ; preds = %38, %40
  %.pn = phi { ptr, i32 } [ %41, %40 ], [ %39, %38 ]
  call void @_ZN5Catch16AssertionHandlerD2Ev(ptr noundef nonnull align 8 dereferenceable(72) %2) #19
  call void @llvm.lifetime.end.p0(i64 72, ptr nonnull %2) #19
  resume { ptr, i32 } %.pn

43:                                               ; preds = %38
  %44 = landingpad { ptr, i32 }
          catch ptr null
  %45 = extractvalue { ptr, i32 } %44, 0
  call void @__clang_call_terminate(ptr %45) #21
  unreachable
}